; Function Attrs: nofree norecurse nosync nounwind memory(readwrite, inaccessiblemem: none) uwtable
define void @lv_display_set_tile_cnt(ptr noundef %0, i32 noundef %1) local_unnamed_addr #7 {
  %3 = icmp ult i32 %1, 256
  br i1 %3, label %4, label %.preheader

.preheader:                                       ; preds = %2, %.preheader
  br label %.preheader

4:                                                ; preds = %2
  %5 = icmp eq ptr %0, null
  br i1 %5, label %6, label %.thread

6:                                                ; preds = %4
  %7 = load ptr, ptr getelementptr inbounds nuw (i8, ptr @lv_global, i64 40), align 8, !tbaa !33
  %8 = icmp eq ptr %7, null
  br i1 %8, label %15, label %.thread

.thread:                                          ; preds = %4, %6
  %.07 = phi ptr [ %7, %6 ], [ %0, %4 ]
  %9 = getelementptr inbounds nuw i8, ptr %.07, i64 88
  %10 = trunc nuw nsw i32 %1 to i16
  %11 = load i16, ptr %9, align 8
  %12 = shl nuw nsw i16 %10, 1
  %13 = and i16 %11, -511
  %14 = or disjoint i16 %13, %12
  store i16 %14, ptr %9, align 8
  br label %15

15:                                               ; preds = %6, %.thread
  ret void
}